target datalayout = "e-m:e-p270:32:32-p271:32:32-p272:64:64-i64:64-i128:128-f80:128-n8:16:32:64-S128"
target triple = "x86_64-pc-linux-gnu"

%struct.AVFormatContext = type { ptr, ptr, ptr, ptr, ptr, i32, i32, ptr, i32, ptr, i32, ptr, ptr, i64, i64, i64, i32, i32, i32, i64, i64, ptr, i32, i32, ptr, i32, i32, i32, i32, ptr, i64, i32, i32, %struct.AVIOInterruptCB, i32, i32, i32, i32, i64, i32, i32, i32, i32, i32, i32, i32, i32, i32, i32, i32, i32, i64, i32, i32, i32, i32, i32, ptr, ptr, ptr, ptr, i32, ptr, ptr, ptr, ptr, i32, ptr, ptr, i64, ptr, ptr, ptr, i64 }
%struct.AVIOInterruptCB = type { ptr, ptr }
%struct.AVStream = type { ptr, i32, i32, ptr, ptr, %struct.AVRational, i64, i64, i64, i32, i32, %struct.AVRational, ptr, %struct.AVRational, %struct.AVPacket, i32, %struct.AVRational, i32 }
%struct.AVPacket = type { ptr, i64, i64, ptr, i32, i32, i32, ptr, i32, i64, i64, ptr, ptr, %struct.AVRational }
%struct.AVRational = type { i32, i32 }
%struct.PayloadContext = type { ptr, i32, ptr, ptr, i32, [8256 x i8], i32 }
%struct.FFIOContext = type { %struct.AVIOContext, ptr, i32, i32, i64, i64, i64, i64, i32, i32, i32, i64 }
%struct.AVIOContext = type { ptr, ptr, i32, ptr, ptr, ptr, ptr, ptr, ptr, i64, i32, i32, i32, i32, i32, i64, ptr, ptr, ptr, ptr, i32, i32, ptr, ptr, ptr, i32, ptr, i64, i64 }
%struct.AVCodecParameters = type { i32, i32, i32, ptr, i32, ptr, i32, i32, i64, i32, i32, i32, i32, i32, i32, %struct.AVRational, %struct.AVRational, i32, i32, i32, i32, i32, i32, i32, %struct.AVChannelLayout, i32, i32, i32, i32, i32, i32 }
%struct.AVChannelLayout = type { i32, i32, %union.anon, ptr }
%union.anon = type { i64 }

; Function Attrs: alwaysinline nounwind uwtable
define internal i64 @avio_tell(ptr noundef %0) #9 {
  %2 = alloca ptr, align 8
  store ptr %0, ptr %2, align 8, !tbaa !111
  %3 = load ptr, ptr %2, align 8, !tbaa !111
  %4 = call i64 @avio_seek(ptr noundef %3, i64 noundef 0, i32 noundef 1)
  ret i64 %4
}

; Function Attrs: nounwind uwtable
define internal i32 @rdt_parse_packet(ptr noundef %0, ptr noundef %1, ptr noundef %2, ptr noundef %3, ptr noundef %4, ptr noundef %5, i32 noundef %6, i16 noundef zeroext %7, i32 noundef %8) #0 {
  %10 = alloca i32, align 4
  %11 = alloca ptr, align 8
  %12 = alloca ptr, align 8
  %13 = alloca ptr, align 8
  %14 = alloca ptr, align 8
  %15 = alloca ptr, align 8
  %16 = alloca ptr, align 8
  %17 = alloca i32, align 4
  %18 = alloca i16, align 2
  %19 = alloca i32, align 4
  %20 = alloca i32, align 4
  %21 = alloca i32, align 4
  %22 = alloca %struct.FFIOContext, align 8
  %23 = alloca i32, align 4
  %24 = alloca i32, align 4
  %25 = alloca i32, align 4
  store ptr %0, ptr %11, align 8, !tbaa !4
  store ptr %1, ptr %12, align 8, !tbaa !76
  store ptr %2, ptr %13, align 8, !tbaa !37
  store ptr %3, ptr %14, align 8, !tbaa !72
  store ptr %4, ptr %15, align 8, !tbaa !59
  store ptr %5, ptr %16, align 8, !tbaa !55
  store i32 %6, ptr %17, align 4, !tbaa !9
  store i16 %7, ptr %18, align 2, !tbaa !62
  store i32 %8, ptr %19, align 4, !tbaa !9
  call void @llvm.lifetime.start.p0(i64 4, ptr %20) #12
  store i32 1, ptr %20, align 4, !tbaa !9
  call void @llvm.lifetime.start.p0(i64 4, ptr %21) #12
  %26 = load ptr, ptr %12, align 8, !tbaa !76
  %27 = getelementptr inbounds nuw %struct.PayloadContext, ptr %26, i32 0, i32 6
  %28 = load i32, ptr %27, align 4, !tbaa !101
  %29 = icmp eq i32 %28, 0
  br i1 %29, label %30, label %103

30:                                               ; preds = %9
  call void @llvm.lifetime.start.p0(i64 280, ptr %22) #12
  call void @llvm.lifetime.start.p0(i64 4, ptr %23) #12
  call void @llvm.lifetime.start.p0(i64 4, ptr %24) #12
  %31 = load ptr, ptr %16, align 8, !tbaa !55
  %32 = load i32, ptr %17, align 4, !tbaa !9
  call void @ffio_init_read_context(ptr noundef %22, ptr noundef %31, i32 noundef %32)
  %33 = load i32, ptr %19, align 4, !tbaa !9
  %34 = and i32 %33, 1
  %35 = icmp ne i32 %34, 0
  %36 = select i1 %35, i32 2, i32 0
  store i32 %36, ptr %24, align 4, !tbaa !9
  %37 = load ptr, ptr %12, align 8, !tbaa !76
  %38 = getelementptr inbounds nuw %struct.PayloadContext, ptr %37, i32 0, i32 0
  %39 = load ptr, ptr %38, align 8, !tbaa !78
  %40 = getelementptr inbounds nuw %struct.FFIOContext, ptr %22, i32 0, i32 0
  %41 = load ptr, ptr %13, align 8, !tbaa !37
  %42 = load ptr, ptr %12, align 8, !tbaa !76
  %43 = getelementptr inbounds nuw %struct.PayloadContext, ptr %42, i32 0, i32 2
  %44 = load ptr, ptr %43, align 8, !tbaa !96
  %45 = load ptr, ptr %13, align 8, !tbaa !37
  %46 = getelementptr inbounds nuw %struct.AVStream, ptr %45, i32 0, i32 1
  %47 = load i32, ptr %46, align 8, !tbaa !94
  %48 = sext i32 %47 to i64
  %49 = getelementptr inbounds ptr, ptr %44, i64 %48
  %50 = load ptr, ptr %49, align 8, !tbaa !97
  %51 = load i32, ptr %17, align 4, !tbaa !9
  %52 = load ptr, ptr %14, align 8, !tbaa !72
  %53 = load i32, ptr %24, align 4, !tbaa !9
  %54 = load ptr, ptr %15, align 8, !tbaa !59
  %55 = load i32, ptr %54, align 4, !tbaa !9
  %56 = zext i32 %55 to i64
  %57 = call i32 @ff_rm_parse_packet(ptr noundef %39, ptr noundef %40, ptr noundef %41, ptr noundef %50, i32 noundef %51, ptr noundef %52, ptr noundef %20, i32 noundef %53, i64 noundef %56)
  store i32 %57, ptr %21, align 4, !tbaa !9
  %58 = getelementptr inbounds nuw %struct.FFIOContext, ptr %22, i32 0, i32 0
  %59 = call i64 @avio_tell(ptr noundef %58)
  %60 = trunc i64 %59 to i32
  store i32 %60, ptr %23, align 4, !tbaa !9
  %61 = load i32, ptr %21, align 4, !tbaa !9
  %62 = icmp slt i32 %61, 0
  br i1 %62, label %63, label %65

63:                                               ; preds = %30
  %64 = load i32, ptr %21, align 4, !tbaa !9
  store i32 %64, ptr %10, align 4
  store i32 1, ptr %25, align 4
  br label %100

65:                                               ; preds = %30
  %66 = load i32, ptr %21, align 4, !tbaa !9
  %67 = icmp sgt i32 %66, 0
  br i1 %67, label %68, label %99

68:                                               ; preds = %65
  %69 = load ptr, ptr %13, align 8, !tbaa !37
  %70 = getelementptr inbounds nuw %struct.AVStream, ptr %69, i32 0, i32 3
  %71 = load ptr, ptr %70, align 8, !tbaa !102
  %72 = getelementptr inbounds nuw %struct.AVCodecParameters, ptr %71, i32 0, i32 1
  %73 = load i32, ptr %72, align 4, !tbaa !103
  %74 = icmp eq i32 %73, 86018
  br i1 %74, label %75, label %98

75:                                               ; preds = %68
  %76 = load ptr, ptr %12, align 8, !tbaa !76
  %77 = getelementptr inbounds nuw %struct.PayloadContext, ptr %76, i32 0, i32 5
  %78 = getelementptr inbounds [8256 x i8], ptr %77, i64 0, i64 0
  %79 = load ptr, ptr %16, align 8, !tbaa !55
  %80 = load i32, ptr %23, align 4, !tbaa !9
  %81 = sext i32 %80 to i64
  %82 = getelementptr inbounds i8, ptr %79, i64 %81
  %83 = load i32, ptr %17, align 4, !tbaa !9
  %84 = load i32, ptr %23, align 4, !tbaa !9
  %85 = sub nsw i32 %83, %84
  %86 = sext i32 %85 to i64
  call void @llvm.memcpy.p0.p0.i64(ptr align 4 %78, ptr align 1 %82, i64 %86, i1 false)
  %87 = load ptr, ptr %12, align 8, !tbaa !76
  %88 = getelementptr inbounds nuw %struct.PayloadContext, ptr %87, i32 0, i32 5
  %89 = getelementptr inbounds [8256 x i8], ptr %88, i64 0, i64 0
  %90 = load i32, ptr %17, align 4, !tbaa !9
  %91 = load i32, ptr %23, align 4, !tbaa !9
  %92 = sub nsw i32 %90, %91
  %93 = call ptr @avio_alloc_context(ptr noundef %89, i32 noundef %92, i32 noundef 0, ptr noundef null, ptr noundef null, ptr noundef null, ptr noundef null)
  %94 = load ptr, ptr %12, align 8, !tbaa !76
  %95 = getelementptr inbounds nuw %struct.PayloadContext, ptr %94, i32 0, i32 0
  %96 = load ptr, ptr %95, align 8, !tbaa !78
  %97 = getelementptr inbounds nuw %struct.AVFormatContext, ptr %96, i32 0, i32 4
  store ptr %93, ptr %97, align 8, !tbaa !106
  br label %98

98:                                               ; preds = %75, %68
  store i32 2, ptr %25, align 4
  br label %100

99:                                               ; preds = %65
  store i32 0, ptr %25, align 4
  br label %100

100:                                              ; preds = %98, %99, %63
  call void @llvm.lifetime.end.p0(i64 4, ptr %24) #12
  call void @llvm.lifetime.end.p0(i64 4, ptr %23) #12
  call void @llvm.lifetime.end.p0(i64 280, ptr %22) #12
  %101 = load i32, ptr %25, align 4
  switch i32 %101, label %160 [
    i32 0, label %102
    i32 2, label %104
  ]

102:                                              ; preds = %100
  br label %144

103:                                              ; preds = %9
  br label %104

104:                                              ; preds = %103, %100
  %105 = load ptr, ptr %12, align 8, !tbaa !76
  %106 = getelementptr inbounds nuw %struct.PayloadContext, ptr %105, i32 0, i32 0
  %107 = load ptr, ptr %106, align 8, !tbaa !78
  %108 = load ptr, ptr %12, align 8, !tbaa !76
  %109 = getelementptr inbounds nuw %struct.PayloadContext, ptr %108, i32 0, i32 0
  %110 = load ptr, ptr %109, align 8, !tbaa !78
  %111 = getelementptr inbounds nuw %struct.AVFormatContext, ptr %110, i32 0, i32 4
  %112 = load ptr, ptr %111, align 8, !tbaa !106
  %113 = load ptr, ptr %13, align 8, !tbaa !37
  %114 = load ptr, ptr %12, align 8, !tbaa !76
  %115 = getelementptr inbounds nuw %struct.PayloadContext, ptr %114, i32 0, i32 2
  %116 = load ptr, ptr %115, align 8, !tbaa !96
  %117 = load ptr, ptr %13, align 8, !tbaa !37
  %118 = getelementptr inbounds nuw %struct.AVStream, ptr %117, i32 0, i32 1
  %119 = load i32, ptr %118, align 8, !tbaa !94
  %120 = sext i32 %119 to i64
  %121 = getelementptr inbounds ptr, ptr %116, i64 %120
  %122 = load ptr, ptr %121, align 8, !tbaa !97
  %123 = load ptr, ptr %14, align 8, !tbaa !72
  %124 = call i32 @ff_rm_retrieve_cache(ptr noundef %107, ptr noundef %112, ptr noundef %113, ptr noundef %122, ptr noundef %123)
  %125 = load ptr, ptr %12, align 8, !tbaa !76
  %126 = getelementptr inbounds nuw %struct.PayloadContext, ptr %125, i32 0, i32 6
  store i32 %124, ptr %126, align 4, !tbaa !101
  %127 = load ptr, ptr %12, align 8, !tbaa !76
  %128 = getelementptr inbounds nuw %struct.PayloadContext, ptr %127, i32 0, i32 6
  %129 = load i32, ptr %128, align 4, !tbaa !101
  %130 = icmp eq i32 %129, 0
  br i1 %130, label %131, label %143

131:                                              ; preds = %104
  %132 = load ptr, ptr %13, align 8, !tbaa !37
  %133 = getelementptr inbounds nuw %struct.AVStream, ptr %132, i32 0, i32 3
  %134 = load ptr, ptr %133, align 8, !tbaa !102
  %135 = getelementptr inbounds nuw %struct.AVCodecParameters, ptr %134, i32 0, i32 1
  %136 = load i32, ptr %135, align 4, !tbaa !103
  %137 = icmp eq i32 %136, 86018
  br i1 %137, label %138, label %143

138:                                              ; preds = %131
  %139 = load ptr, ptr %12, align 8, !tbaa !76
  %140 = getelementptr inbounds nuw %struct.PayloadContext, ptr %139, i32 0, i32 0
  %141 = load ptr, ptr %140, align 8, !tbaa !78
  %142 = getelementptr inbounds nuw %struct.AVFormatContext, ptr %141, i32 0, i32 4
  call void @avio_context_free(ptr noundef %142)
  br label %143

143:                                              ; preds = %138, %131, %104
  br label %144

144:                                              ; preds = %143, %102
  %145 = load ptr, ptr %13, align 8, !tbaa !37
  %146 = getelementptr inbounds nuw %struct.AVStream, ptr %145, i32 0, i32 1
  %147 = load i32, ptr %146, align 8, !tbaa !94
  %148 = load ptr, ptr %14, align 8, !tbaa !72
  %149 = getelementptr inbounds nuw %struct.AVPacket, ptr %148, i32 0, i32 5
  store i32 %147, ptr %149, align 4, !tbaa !107
  %150 = load ptr, ptr %15, align 8, !tbaa !59
  %151 = load i32, ptr %150, align 4, !tbaa !9
  %152 = zext i32 %151 to i64
  %153 = load ptr, ptr %14, align 8, !tbaa !72
  %154 = getelementptr inbounds nuw %struct.AVPacket, ptr %153, i32 0, i32 1
  store i64 %152, ptr %154, align 8, !tbaa !108
  %155 = load ptr, ptr %12, align 8, !tbaa !76
  %156 = getelementptr inbounds nuw %struct.PayloadContext, ptr %155, i32 0, i32 6
  %157 = load i32, ptr %156, align 4, !tbaa !101
  %158 = icmp sgt i32 %157, 0
  %159 = zext i1 %158 to i32
  store i32 %159, ptr %10, align 4
  store i32 1, ptr %25, align 4
  br label %160

160:                                              ; preds = %144, %100
  call void @llvm.lifetime.end.p0(i64 4, ptr %21) #12
  call void @llvm.lifetime.end.p0(i64 4, ptr %20) #12
  %161 = load i32, ptr %10, align 4
  ret i32 %161
}