; Function Attrs: nounwind uwtable
define internal range(i32 -2147483648, 2) i32 @rdt_parse_packet(ptr readnone captures(none) %0, ptr noundef %1, ptr noundef %2, ptr noundef %3, ptr noundef readonly captures(none) %4, ptr noundef %5, i32 noundef %6, i16 zeroext %7, i32 noundef %8) #0 {
  %10 = alloca i32, align 4
  %11 = alloca %struct.FFIOContext, align 8
  call void @llvm.lifetime.start.p0(i64 4, ptr nonnull %10) #11
  store i32 1, ptr %10, align 4, !tbaa !52
  %12 = getelementptr inbounds nuw i8, ptr %1, i64 8292
  %13 = load i32, ptr %12, align 4, !tbaa !84
  %14 = icmp eq i32 %13, 0
  br i1 %14, label %15, label %49

15:                                               ; preds = %9
  call void @llvm.lifetime.start.p0(i64 280, ptr nonnull %11) #11
  call void @ffio_init_read_context(ptr noundef nonnull %11, ptr noundef %5, i32 noundef %6) #11
  %16 = shl i32 %8, 1
  %17 = and i32 %16, 2
  %18 = load ptr, ptr %1, align 8, !tbaa !71
  %19 = getelementptr inbounds nuw i8, ptr %1, i64 16
  %20 = load ptr, ptr %19, align 8, !tbaa !77
  %21 = getelementptr inbounds nuw i8, ptr %2, i64 8
  %22 = load i32, ptr %21, align 8, !tbaa !75
  %23 = sext i32 %22 to i64
  %24 = getelementptr inbounds ptr, ptr %20, i64 %23
  %25 = load ptr, ptr %24, align 8, !tbaa !78
  %26 = load i32, ptr %4, align 4, !tbaa !52
  %27 = zext i32 %26 to i64
  %28 = call i32 @ff_rm_parse_packet(ptr noundef %18, ptr noundef nonnull %11, ptr noundef %2, ptr noundef %25, i32 noundef %6, ptr noundef %3, ptr noundef nonnull %10, i32 noundef %17, i64 noundef %27) #11
  %29 = call i64 @avio_seek(ptr noundef nonnull %11, i64 noundef 0, i32 noundef 1) #11
  %30 = trunc i64 %29 to i32
  %31 = icmp slt i32 %28, 0
  br i1 %31, label %.thread44, label %32

.thread44:                                        ; preds = %15
  call void @llvm.lifetime.end.p0(i64 280, ptr nonnull %11) #11
  br label %81

32:                                               ; preds = %15
  %.not = icmp eq i32 %28, 0
  br i1 %.not, label %48, label %33

33:                                               ; preds = %32
  %34 = getelementptr inbounds nuw i8, ptr %2, i64 16
  %35 = load ptr, ptr %34, align 8, !tbaa !54
  %36 = getelementptr inbounds nuw i8, ptr %35, i64 4
  %37 = load i32, ptr %36, align 4, !tbaa !85
  %38 = icmp eq i32 %37, 86018
  br i1 %38, label %39, label %.thread

39:                                               ; preds = %33
  %40 = getelementptr inbounds nuw i8, ptr %1, i64 36
  %sext = shl i64 %29, 32
  %41 = ashr exact i64 %sext, 32
  %42 = getelementptr inbounds i8, ptr %5, i64 %41
  %43 = sub nsw i32 %6, %30
  %44 = sext i32 %43 to i64
  call void @llvm.memcpy.p0.p0.i64(ptr nonnull align 4 %40, ptr align 1 %42, i64 %44, i1 false)
  %45 = call ptr @avio_alloc_context(ptr noundef nonnull %40, i32 noundef %43, i32 noundef 0, ptr noundef null, ptr noundef null, ptr noundef null, ptr noundef null) #11
  %46 = load ptr, ptr %1, align 8, !tbaa !71
  %47 = getelementptr inbounds nuw i8, ptr %46, i64 32
  store ptr %45, ptr %47, align 8, !tbaa !86
  br label %.thread

.thread:                                          ; preds = %39, %33
  call void @llvm.lifetime.end.p0(i64 280, ptr nonnull %11) #11
  br label %49

48:                                               ; preds = %32
  call void @llvm.lifetime.end.p0(i64 280, ptr nonnull %11) #11
  br label %71

49:                                               ; preds = %.thread, %9
  %50 = load ptr, ptr %1, align 8, !tbaa !71
  %51 = getelementptr inbounds nuw i8, ptr %50, i64 32
  %52 = load ptr, ptr %51, align 8, !tbaa !86
  %53 = getelementptr inbounds nuw i8, ptr %1, i64 16
  %54 = load ptr, ptr %53, align 8, !tbaa !77
  %55 = getelementptr inbounds nuw i8, ptr %2, i64 8
  %56 = load i32, ptr %55, align 8, !tbaa !75
  %57 = sext i32 %56 to i64
  %58 = getelementptr inbounds ptr, ptr %54, i64 %57
  %59 = load ptr, ptr %58, align 8, !tbaa !78
  %60 = call i32 @ff_rm_retrieve_cache(ptr noundef %50, ptr noundef %52, ptr noundef %2, ptr noundef %59, ptr noundef %3) #11
  store i32 %60, ptr %12, align 4, !tbaa !84
  %61 = icmp eq i32 %60, 0
  br i1 %61, label %62, label %71

62:                                               ; preds = %49
  %63 = getelementptr inbounds nuw i8, ptr %2, i64 16
  %64 = load ptr, ptr %63, align 8, !tbaa !54
  %65 = getelementptr inbounds nuw i8, ptr %64, i64 4
  %66 = load i32, ptr %65, align 4, !tbaa !85
  %67 = icmp eq i32 %66, 86018
  br i1 %67, label %68, label %71

68:                                               ; preds = %62
  %69 = load ptr, ptr %1, align 8, !tbaa !71
  %70 = getelementptr inbounds nuw i8, ptr %69, i64 32
  call void @avio_context_free(ptr noundef nonnull %70) #11
  br label %71

71:                                               ; preds = %48, %49, %62, %68
  %72 = getelementptr inbounds nuw i8, ptr %2, i64 8
  %73 = load i32, ptr %72, align 8, !tbaa !75
  %74 = getelementptr inbounds nuw i8, ptr %3, i64 36
  store i32 %73, ptr %74, align 4, !tbaa !87
  %75 = load i32, ptr %4, align 4, !tbaa !52
  %76 = zext i32 %75 to i64
  %77 = getelementptr inbounds nuw i8, ptr %3, i64 8
  store i64 %76, ptr %77, align 8, !tbaa !88
  %78 = load i32, ptr %12, align 4, !tbaa !84
  %79 = icmp sgt i32 %78, 0
  %80 = zext i1 %79 to i32
  br label %81

81:                                               ; preds = %.thread44, %71
  %.1 = phi i32 [ %80, %71 ], [ %28, %.thread44 ]
  call void @llvm.lifetime.end.p0(i64 4, ptr nonnull %10) #11
  ret i32 %.1
}